(lp0
S'poi'
p1
aS'salary'
p2
aS'deferral_payments'
p3
aS'total_payments'
p4
aS'loan_advances'
p5
aS'bonus'
p6
aS'bonus_salary_ratio'
p7
aS'restricted_stock_deferred'
p8
aS'deferred_income'
p9
aS'total_stock_value'
p10
aS'expenses'
p11
aS'exercised_stock_options'
p12
aS'other'
p13
aS'long_term_incentive'
p14
aS'restricted_stock'
p15
aS'director_fees'
p16
aS'to_messages'
p17
aS'from_poi_to_this_person'
p18
aS'from_messages'
p19
aS'from_this_person_to_poi'
p20
aS'shared_receipt_with_poi'
p21
a.